target datalayout = "e-m:e-p270:32:32-p271:32:32-p272:64:64-i64:64-i128:128-f80:128-n8:16:32:64-S128"
target triple = "x86_64-pc-linux-gnu"

%struct.expert_field = type { i32, i32 }

@hf_ansi_637_tele_num_messages = internal global i32 0, align 4
@ei_ansi_637_unexpected_length = internal global %struct.expert_field zeroinitializer, align 4
@.str.373 = private unnamed_addr constant [5 x i8] c"%u%u\00", align 1

; Function Attrs: null_pointer_is_valid sspstrong uwtable
define internal void @tele_param_num_messages(ptr noundef %0, ptr noundef %1, ptr noundef %2, i32 noundef %3, i32 noundef %4, ptr noundef %5) #0 {
  %7 = alloca ptr, align 8
  %8 = alloca ptr, align 8
  %9 = alloca ptr, align 8
  %10 = alloca i32, align 4
  %11 = alloca i32, align 4
  %12 = alloca ptr, align 8
  %13 = alloca i8, align 1
  %14 = alloca i32, align 4
  store ptr %0, ptr %7, align 8
  store ptr %1, ptr %8, align 8
  store ptr %2, ptr %9, align 8
  store i32 %3, ptr %10, align 4
  store i32 %4, ptr %11, align 4
  store ptr %5, ptr %12, align 8
  call void @llvm.lifetime.start.p0(i64 1, ptr %13) #7
  %15 = load i32, ptr %10, align 4
  %16 = icmp ne i32 %15, 1
  br i1 %16, label %17, label %24

17:                                               ; preds = %6
  %18 = load ptr, ptr %9, align 8
  %19 = load ptr, ptr %8, align 8
  %20 = load ptr, ptr %7, align 8
  %21 = load i32, ptr %11, align 4
  %22 = load i32, ptr %10, align 4
  %23 = call ptr @proto_tree_add_expert(ptr noundef %18, ptr noundef %19, ptr noundef @ei_ansi_637_unexpected_length, ptr noundef %20, i32 noundef %21, i32 noundef %22)
  store i32 1, ptr %14, align 4
  br label %49

24:                                               ; preds = %6
  %25 = load ptr, ptr %7, align 8
  %26 = load i32, ptr %11, align 4
  %27 = call zeroext i8 @tvb_get_uint8(ptr noundef %25, i32 noundef %26)
  store i8 %27, ptr %13, align 1
  %28 = load ptr, ptr %9, align 8
  %29 = load i32, ptr @hf_ansi_637_tele_num_messages, align 4
  %30 = load ptr, ptr %7, align 8
  %31 = load i32, ptr %11, align 4
  %32 = load i8, ptr %13, align 1
  %33 = zext i8 %32 to i32
  %34 = and i32 %33, 240
  %35 = ashr i32 %34, 4
  %36 = mul i32 %35, 10
  %37 = load i8, ptr %13, align 1
  %38 = zext i8 %37 to i32
  %39 = and i32 %38, 15
  %40 = add i32 %36, %39
  %41 = load i8, ptr %13, align 1
  %42 = zext i8 %41 to i32
  %43 = and i32 %42, 240
  %44 = ashr i32 %43, 4
  %45 = load i8, ptr %13, align 1
  %46 = zext i8 %45 to i32
  %47 = and i32 %46, 15
  %48 = call ptr (ptr, i32, ptr, i32, i32, i32, ptr, ...) @proto_tree_add_uint_format_value(ptr noundef %28, i32 noundef %29, ptr noundef %30, i32 noundef %31, i32 noundef 1, i32 noundef %40, ptr noundef @.str.373, i32 noundef %44, i32 noundef %47)
  store i32 0, ptr %14, align 4
  br label %49

49:                                               ; preds = %24, %17
  call void @llvm.lifetime.end.p0(i64 1, ptr %13) #7
  %50 = load i32, ptr %14, align 4
  switch i32 %50, label %52 [
    i32 0, label %51
    i32 1, label %51
  ]

51:                                               ; preds = %49, %49
  ret void

52:                                               ; preds = %49
  unreachable
}